EXPORTS
	??1CSbcEncoderIntfcCI@@UAE@XZ @ 1 NONAME ; CSbcEncoderIntfcCI::~CSbcEncoderIntfcCI(void)
	?ApplyConfig@CSbcEncoderIntfcCI@@UAEHXZ @ 2 NONAME ; int CSbcEncoderIntfcCI::ApplyConfig(void)
	?GetAllocationMethod@CSbcEncoderIntfcCI@@UAEHAAW4TSbcAllocationMethod@CSbcEncoderIntfc@@@Z @ 3 NONAME ; int CSbcEncoderIntfcCI::GetAllocationMethod(enum CSbcEncoderIntfc::TSbcAllocationMethod &)
	?GetBitpoolSize@CSbcEncoderIntfcCI@@UAEHAAI@Z @ 4 NONAME ; int CSbcEncoderIntfcCI::GetBitpoolSize(unsigned int &)
	?GetChannelMode@CSbcEncoderIntfcCI@@UAEHAAW4TSbcChannelMode@CSbcEncoderIntfc@@@Z @ 5 NONAME ; int CSbcEncoderIntfcCI::GetChannelMode(enum CSbcEncoderIntfc::TSbcChannelMode &)
	?GetNumOfBlocks@CSbcEncoderIntfcCI@@UAEHAAI@Z @ 6 NONAME ; int CSbcEncoderIntfcCI::GetNumOfBlocks(unsigned int &)
	?GetNumOfSubbands@CSbcEncoderIntfcCI@@UAEHAAI@Z @ 7 NONAME ; int CSbcEncoderIntfcCI::GetNumOfSubbands(unsigned int &)
	?GetSamplingFrequency@CSbcEncoderIntfcCI@@UAEHAAI@Z @ 8 NONAME ; int CSbcEncoderIntfcCI::GetSamplingFrequency(unsigned int &)
	?GetSupportedAllocationMethods@CSbcEncoderIntfcCI@@UAEHAAV?$RArray@W4TSbcAllocationMethod@CSbcEncoderIntfc@@@@@Z @ 9 NONAME ; int CSbcEncoderIntfcCI::GetSupportedAllocationMethods(class RArray<enum CSbcEncoderIntfc::TSbcAllocationMethod> &)
	?GetSupportedBitpoolRange@CSbcEncoderIntfcCI@@UAEHAAI0@Z @ 10 NONAME ; int CSbcEncoderIntfcCI::GetSupportedBitpoolRange(unsigned int &, unsigned int &)
	?GetSupportedChannelModes@CSbcEncoderIntfcCI@@UAEHAAV?$RArray@W4TSbcChannelMode@CSbcEncoderIntfc@@@@@Z @ 11 NONAME ; int CSbcEncoderIntfcCI::GetSupportedChannelModes(class RArray<enum CSbcEncoderIntfc::TSbcChannelMode> &)
	?GetSupportedNumOfBlocks@CSbcEncoderIntfcCI@@UAEHAAV?$RArray@I@@@Z @ 12 NONAME ; int CSbcEncoderIntfcCI::GetSupportedNumOfBlocks(class RArray<unsigned int> &)
	?GetSupportedNumOfSubbands@CSbcEncoderIntfcCI@@UAEHAAV?$RArray@I@@@Z @ 13 NONAME ; int CSbcEncoderIntfcCI::GetSupportedNumOfSubbands(class RArray<unsigned int> &)
	?GetSupportedSamplingFrequencies@CSbcEncoderIntfcCI@@UAEHAAV?$RArray@I@@@Z @ 14 NONAME ; int CSbcEncoderIntfcCI::GetSupportedSamplingFrequencies(class RArray<unsigned int> &)
	?NewL@CSbcEncoderIntfcCI@@SAPAV1@XZ @ 15 NONAME ; class CSbcEncoderIntfcCI * CSbcEncoderIntfcCI::NewL(void)
	?SetAllocationMethod@CSbcEncoderIntfcCI@@UAEXW4TSbcAllocationMethod@CSbcEncoderIntfc@@@Z @ 16 NONAME ; void CSbcEncoderIntfcCI::SetAllocationMethod(enum CSbcEncoderIntfc::TSbcAllocationMethod)
	?SetBitpoolSize@CSbcEncoderIntfcCI@@UAEXI@Z @ 17 NONAME ; void CSbcEncoderIntfcCI::SetBitpoolSize(unsigned int)
	?SetChannelMode@CSbcEncoderIntfcCI@@UAEXW4TSbcChannelMode@CSbcEncoderIntfc@@@Z @ 18 NONAME ; void CSbcEncoderIntfcCI::SetChannelMode(enum CSbcEncoderIntfc::TSbcChannelMode)
	?SetNumOfBlocks@CSbcEncoderIntfcCI@@UAEXI@Z @ 19 NONAME ; void CSbcEncoderIntfcCI::SetNumOfBlocks(unsigned int)
	?SetNumOfSubbands@CSbcEncoderIntfcCI@@UAEXI@Z @ 20 NONAME ; void CSbcEncoderIntfcCI::SetNumOfSubbands(unsigned int)
	?SetSamplingFrequency@CSbcEncoderIntfcCI@@UAEXI@Z @ 21 NONAME ; void CSbcEncoderIntfcCI::SetSamplingFrequency(unsigned int)

