EXPORTS
	??1CMMFDevSoundAdaptation@@UAE@XZ @ 1 NONAME ; CMMFDevSoundAdaptation::~CMMFDevSoundAdaptation(void)
	?Capabilities@CMMFDevSoundAdaptation@@QAE?AVTMMFCapabilities@@XZ @ 2 NONAME ; class TMMFCapabilities CMMFDevSoundAdaptation::Capabilities(void)
	?ClientConfig@CMMFDevSoundAdaptation@@QBEABVTMMFClientConfig@@XZ @ 3 NONAME ; class TMMFClientConfig const & CMMFDevSoundAdaptation::ClientConfig(void) const
	?Config@CMMFDevSoundAdaptation@@QBE?AVTMMFCapabilities@@XZ @ 4 NONAME ; class TMMFCapabilities CMMFDevSoundAdaptation::Config(void) const
	?CustomInterface@CMMFDevSoundAdaptation@@QAEPAXVTUid@@@Z @ 5 NONAME ; void * CMMFDevSoundAdaptation::CustomInterface(class TUid)
	?FixedSequenceCount@CMMFDevSoundAdaptation@@QAEHXZ @ 6 NONAME ; int CMMFDevSoundAdaptation::FixedSequenceCount(void)
	?FixedSequenceName@CMMFDevSoundAdaptation@@QAEABVTDesC16@@H@Z @ 7 NONAME ; class TDesC16 const & CMMFDevSoundAdaptation::FixedSequenceName(int)
	?Gain@CMMFDevSoundAdaptation@@QAEHXZ @ 8 NONAME ; int CMMFDevSoundAdaptation::Gain(void)
	?GetPlayBalanceL@CMMFDevSoundAdaptation@@QAEXAAH0@Z @ 9 NONAME ; void CMMFDevSoundAdaptation::GetPlayBalanceL(int &, int &)
	?GetRecordBalanceL@CMMFDevSoundAdaptation@@QAEXAAH0@Z @ 10 NONAME ; void CMMFDevSoundAdaptation::GetRecordBalanceL(int &, int &)
	?GetSupportedInputDataTypesL@CMMFDevSoundAdaptation@@QBEXAAV?$RArray@VTFourCC@@@@ABVTMMFPrioritySettings@@@Z @ 11 NONAME ; void CMMFDevSoundAdaptation::GetSupportedInputDataTypesL(class RArray<class TFourCC> &, class TMMFPrioritySettings const &) const
	?GetSupportedOutputDataTypesL@CMMFDevSoundAdaptation@@QBEXAAV?$RArray@VTFourCC@@@@ABVTMMFPrioritySettings@@@Z @ 12 NONAME ; void CMMFDevSoundAdaptation::GetSupportedOutputDataTypesL(class RArray<class TFourCC> &, class TMMFPrioritySettings const &) const
	?InitializeL@CMMFDevSoundAdaptation@@QAEXAAVMDevSoundAdaptationObserver@@VTFourCC@@W4TMMFState@@@Z @ 13 NONAME ; void CMMFDevSoundAdaptation::InitializeL(class MDevSoundAdaptationObserver &, class TFourCC, enum TMMFState)
	?InitializeL@CMMFDevSoundAdaptation@@QAEXAAVMDevSoundAdaptationObserver@@VTUid@@W4TMMFState@@@Z @ 14 NONAME ; void CMMFDevSoundAdaptation::InitializeL(class MDevSoundAdaptationObserver &, class TUid, enum TMMFState)
	?InitializeL@CMMFDevSoundAdaptation@@QAEXAAVMDevSoundAdaptationObserver@@W4TMMFState@@@Z @ 15 NONAME ; void CMMFDevSoundAdaptation::InitializeL(class MDevSoundAdaptationObserver &, enum TMMFState)
	?MaxGain@CMMFDevSoundAdaptation@@QAEHXZ @ 16 NONAME ; int CMMFDevSoundAdaptation::MaxGain(void)
	?MaxVolume@CMMFDevSoundAdaptation@@QAEHXZ @ 17 NONAME ; int CMMFDevSoundAdaptation::MaxVolume(void)
	?NewL@CMMFDevSoundAdaptation@@SAPAV1@AAVRServer2@@@Z @ 18 NONAME ; class CMMFDevSoundAdaptation * CMMFDevSoundAdaptation::NewL(class RServer2 &)
	?Pause@CMMFDevSoundAdaptation@@QAEXXZ @ 19 NONAME ; void CMMFDevSoundAdaptation::Pause(void)
	?PlayDTMFStringL@CMMFDevSoundAdaptation@@QAEXABVTDesC16@@@Z @ 20 NONAME ; void CMMFDevSoundAdaptation::PlayDTMFStringL(class TDesC16 const &)
	?PlayData@CMMFDevSoundAdaptation@@QAEXXZ @ 21 NONAME ; void CMMFDevSoundAdaptation::PlayData(void)
	?PlayDualToneL@CMMFDevSoundAdaptation@@QAEXHHABVTTimeIntervalMicroSeconds@@@Z @ 22 NONAME ; void CMMFDevSoundAdaptation::PlayDualToneL(int, int, class TTimeIntervalMicroSeconds const &)
	?PlayFixedSequenceL@CMMFDevSoundAdaptation@@QAEXH@Z @ 23 NONAME ; void CMMFDevSoundAdaptation::PlayFixedSequenceL(int)
	?PlayInitL@CMMFDevSoundAdaptation@@QAEXXZ @ 24 NONAME ; void CMMFDevSoundAdaptation::PlayInitL(void)
	?PlayToneL@CMMFDevSoundAdaptation@@QAEXHABVTTimeIntervalMicroSeconds@@@Z @ 25 NONAME ; void CMMFDevSoundAdaptation::PlayToneL(int, class TTimeIntervalMicroSeconds const &)
	?PlayToneSequenceL@CMMFDevSoundAdaptation@@QAEXABVTDesC8@@@Z @ 26 NONAME ; void CMMFDevSoundAdaptation::PlayToneSequenceL(class TDesC8 const &)
	?RecordData@CMMFDevSoundAdaptation@@QAEXXZ @ 27 NONAME ; void CMMFDevSoundAdaptation::RecordData(void)
	?RecordInitL@CMMFDevSoundAdaptation@@QAEXXZ @ 28 NONAME ; void CMMFDevSoundAdaptation::RecordInitL(void)
	?SamplesPlayed@CMMFDevSoundAdaptation@@QAEHXZ @ 29 NONAME ; int CMMFDevSoundAdaptation::SamplesPlayed(void)
	?SamplesRecorded@CMMFDevSoundAdaptation@@QAEHXZ @ 30 NONAME ; int CMMFDevSoundAdaptation::SamplesRecorded(void)
	?SetClientConfig@CMMFDevSoundAdaptation@@QAEXABVTMMFClientConfig@@@Z @ 31 NONAME ; void CMMFDevSoundAdaptation::SetClientConfig(class TMMFClientConfig const &)
	?SetConfigL@CMMFDevSoundAdaptation@@QAEXABVTMMFCapabilities@@@Z @ 32 NONAME ; void CMMFDevSoundAdaptation::SetConfigL(class TMMFCapabilities const &)
	?SetDTMFLengths@CMMFDevSoundAdaptation@@QAEXAAVTTimeIntervalMicroSeconds32@@00@Z @ 33 NONAME ; void CMMFDevSoundAdaptation::SetDTMFLengths(class TTimeIntervalMicroSeconds32 &, class TTimeIntervalMicroSeconds32 &, class TTimeIntervalMicroSeconds32 &)
	?SetGain@CMMFDevSoundAdaptation@@QAEXH@Z @ 34 NONAME ; void CMMFDevSoundAdaptation::SetGain(int)
	?SetPlayBalanceL@CMMFDevSoundAdaptation@@QAEXHH@Z @ 35 NONAME ; void CMMFDevSoundAdaptation::SetPlayBalanceL(int, int)
	?SetPrioritySettings@CMMFDevSoundAdaptation@@QAEXABVTMMFPrioritySettings@@@Z @ 36 NONAME ; void CMMFDevSoundAdaptation::SetPrioritySettings(class TMMFPrioritySettings const &)
	?SetRecordBalanceL@CMMFDevSoundAdaptation@@QAEXHH@Z @ 37 NONAME ; void CMMFDevSoundAdaptation::SetRecordBalanceL(int, int)
	?SetToneRepeats@CMMFDevSoundAdaptation@@QAEXHABVTTimeIntervalMicroSeconds@@@Z @ 38 NONAME ; void CMMFDevSoundAdaptation::SetToneRepeats(int, class TTimeIntervalMicroSeconds const &)
	?SetVolume@CMMFDevSoundAdaptation@@QAEXH@Z @ 39 NONAME ; void CMMFDevSoundAdaptation::SetVolume(int)
	?SetVolumeRamp@CMMFDevSoundAdaptation@@QAEXABVTTimeIntervalMicroSeconds@@@Z @ 40 NONAME ; void CMMFDevSoundAdaptation::SetVolumeRamp(class TTimeIntervalMicroSeconds const &)
	?Stop@CMMFDevSoundAdaptation@@QAEXXZ @ 41 NONAME ; void CMMFDevSoundAdaptation::Stop(void)
	?Volume@CMMFDevSoundAdaptation@@QAEHXZ @ 42 NONAME ; int CMMFDevSoundAdaptation::Volume(void)

