EXPORTS
	?CreateLogicalDevice@@YAPAVDLogicalDevice@@XZ @ 1 NONAME ; class DLogicalDevice * CreateLogicalDevice(void)
	??0DIscChannel@@QAE@PAVDLogicalDevice@@@Z @ 2 NONAME ; DIscChannel::DIscChannel(class DLogicalDevice *)
	??0DIscDevice@@QAE@XZ @ 3 NONAME ; DIscDevice::DIscDevice(void)
	??0DIscQueue@@QAE@PAPAKG@Z @ 4 NONAME ; DIscQueue::DIscQueue(unsigned long * *, unsigned short)
	??0DIscSendQueue@@QAE@PAPAKPAPAVTIscSendFrameInfo@@G@Z @ 5 NONAME ; DIscSendQueue::DIscSendQueue(unsigned long * *, class TIscSendFrameInfo * *, unsigned short)
	??1DIscDevice@@UAE@XZ @ 6 NONAME ; DIscDevice::~DIscDevice(void)
	??1DIscQueue@@UAE@XZ @ 7 NONAME ; DIscQueue::~DIscQueue(void)
	??1DIscSendQueue@@UAE@XZ @ 8 NONAME ; DIscSendQueue::~DIscSendQueue(void)
	?Add@DIscQueue@@QAEHPAX@Z @ 9 NONAME ; int DIscQueue::Add(void *)
	?Add@DIscSendQueue@@QAEHPAXGPAVDIscChannel@@0@Z @ 10 NONAME ; int DIscSendQueue::Add(void *, unsigned short, class DIscChannel *, void *)
	?CancelSending@DIscDevice@@QAEHGPBX@Z @ 11 NONAME ; int DIscDevice::CancelSending(unsigned short, void const *)
	?CompleteRequest@DIscDevice@@QAEXGHPBX@Z @ 12 NONAME ; void DIscDevice::CompleteRequest(unsigned short, int, void const *)
	?CopyFromUserBuffer@DIscDevice@@QAEHABVTDesC8@@AAVTDes8@@PBXH@Z @ 13 NONAME ; int DIscDevice::CopyFromUserBuffer(class TDesC8 const &, class TDes8 &, void const *, int)
	?CopyToUserBuffer@DIscDevice@@QAEHPAXABVTDesC8@@PBXH@Z @ 14 NONAME ; int DIscDevice::CopyToUserBuffer(void *, class TDesC8 const &, void const *, int)
	?DeleteFirst@DIscQueue@@QAEXXZ @ 15 NONAME ; void DIscQueue::DeleteFirst(void)
	?Empty@DIscQueue@@QAEHXZ @ 16 NONAME ; int DIscQueue::Empty(void)
	?FlushQueues@DIscDevice@@QAEXXZ @ 17 NONAME ; void DIscDevice::FlushQueues(void)
	?GetCaps@DIscDevice@@UBEXAAVTDes8@@@Z @ 18 NONAME ; void DIscDevice::GetCaps(class TDes8 &) const
	?GetFirst@DIscQueue@@QAEPAXXZ @ 19 NONAME ; void * DIscQueue::GetFirst(void)
	?GetFirstFrameInfo@DIscSendQueue@@QAEPAVTIscSendFrameInfo@@XZ @ 20 NONAME ; class TIscSendFrameInfo * DIscSendQueue::GetFirstFrameInfo(void)
	?GetThreadPtr@DIscDevice@@QAEPAVDThread@@PBX@Z @ 21 NONAME ; class DThread * DIscDevice::GetThreadPtr(void const *)
	?IsPending@DIscDevice@@QAEHGPBX@Z @ 22 NONAME ; int DIscDevice::IsPending(unsigned short, void const *)
	?NextBufferLength@DIscQueue@@QAEGXZ @ 23 NONAME ; unsigned short DIscQueue::NextBufferLength(void)
	?NotifyConnectionStatus@DIscDevice@@QAEXH@Z @ 24 NONAME ; void DIscDevice::NotifyConnectionStatus(int)
	?QueueFrame@DIscDevice@@QAEHGPBVTDesC8@@PBXPAX@Z @ 25 NONAME ; int DIscDevice::QueueFrame(unsigned short, class TDesC8 const *, void const *, void *)
	?Receive@DIscDevice@@QBEXPAVTDesC8@@@Z @ 26 NONAME ; void DIscDevice::Receive(class TDesC8 *) const
	?ReleaseMemoryBlock@DIscDevice@@QAEXPAVTDes8@@@Z @ 27 NONAME ; void DIscDevice::ReleaseMemoryBlock(class TDes8 *)
	?RemoveFirst@DIscQueue@@QAEPAXXZ @ 28 NONAME ; void * DIscQueue::RemoveFirst(void)
	?ReserveMemoryBlock@DIscDevice@@QAEXAAPAVTDes8@@G@Z @ 29 NONAME ; void DIscDevice::ReserveMemoryBlock(class TDes8 * &, unsigned short)
	?SetChannel@IscChannelContainer@@SAHPAVDIscChannel@@G@Z @ 30 NONAME ; int IscChannelContainer::SetChannel(class DIscChannel *, unsigned short)
	?ULFlowControl@DIscDevice@@QAEXHGPBX@Z @ 31 NONAME ; void DIscDevice::ULFlowControl(int, unsigned short, void const *)

