EXPORTS
	??1CWmaDecoderIntfcCI@@UAE@XZ @ 1 NONAME ; CWmaDecoderIntfcCI::~CWmaDecoderIntfcCI(void)
	?ApplyConfig@CWmaDecoderIntfcCI@@UAEHXZ @ 2 NONAME ; int CWmaDecoderIntfcCI::ApplyConfig(void)
	?DisableTool@CWmaDecoderIntfcCI@@UAEXW4TTool@CWmaDecoderIntfc@@@Z @ 3 NONAME ; void CWmaDecoderIntfcCI::DisableTool(enum CWmaDecoderIntfc::TTool)
	?EnableTool@CWmaDecoderIntfcCI@@UAEXW4TTool@CWmaDecoderIntfc@@@Z @ 4 NONAME ; void CWmaDecoderIntfcCI::EnableTool(enum CWmaDecoderIntfc::TTool)
	?GetAvgBytesPerSec@CWmaDecoderIntfcCI@@UAEHAAI@Z @ 5 NONAME ; int CWmaDecoderIntfcCI::GetAvgBytesPerSec(unsigned int &)
	?GetBitsPerSampleIn@CWmaDecoderIntfcCI@@UAEHAAI@Z @ 6 NONAME ; int CWmaDecoderIntfcCI::GetBitsPerSampleIn(unsigned int &)
	?GetBlockAlign@CWmaDecoderIntfcCI@@UAEHAAI@Z @ 7 NONAME ; int CWmaDecoderIntfcCI::GetBlockAlign(unsigned int &)
	?GetChannelMaskIn@CWmaDecoderIntfcCI@@UAEHAAI@Z @ 8 NONAME ; int CWmaDecoderIntfcCI::GetChannelMaskIn(unsigned int &)
	?GetControllableTools@CWmaDecoderIntfcCI@@UAEHAAV?$RArray@W4TTool@CWmaDecoderIntfc@@@@@Z @ 9 NONAME ; int CWmaDecoderIntfcCI::GetControllableTools(class RArray<enum CWmaDecoderIntfc::TTool> &)
	?GetEncodeOptions1@CWmaDecoderIntfcCI@@UAEHAAI@Z @ 10 NONAME ; int CWmaDecoderIntfcCI::GetEncodeOptions1(unsigned int &)
	?GetEncodeOptions2@CWmaDecoderIntfcCI@@UAEHAAI@Z @ 11 NONAME ; int CWmaDecoderIntfcCI::GetEncodeOptions2(unsigned int &)
	?GetEncodeOptions@CWmaDecoderIntfcCI@@UAEHAAI@Z @ 12 NONAME ; int CWmaDecoderIntfcCI::GetEncodeOptions(unsigned int &)
	?GetFormat@CWmaDecoderIntfcCI@@UAEHAAW4TFormat@CWmaDecoderIntfc@@@Z @ 13 NONAME ; int CWmaDecoderIntfcCI::GetFormat(enum CWmaDecoderIntfc::TFormat &)
	?GetNumOfChannelsIn@CWmaDecoderIntfcCI@@UAEHAAI@Z @ 14 NONAME ; int CWmaDecoderIntfcCI::GetNumOfChannelsIn(unsigned int &)
	?GetSamplesPerSec@CWmaDecoderIntfcCI@@UAEHAAI@Z @ 15 NONAME ; int CWmaDecoderIntfcCI::GetSamplesPerSec(unsigned int &)
	?GetSupportedFormats@CWmaDecoderIntfcCI@@UAEHAAV?$RArray@W4TFormat@CWmaDecoderIntfc@@@@@Z @ 16 NONAME ; int CWmaDecoderIntfcCI::GetSupportedFormats(class RArray<enum CWmaDecoderIntfc::TFormat> &)
	?GetSupportedMaxBitrate@CWmaDecoderIntfcCI@@UAEHAAI@Z @ 17 NONAME ; int CWmaDecoderIntfcCI::GetSupportedMaxBitrate(unsigned int &)
	?GetSupportedMaxChannelsIn@CWmaDecoderIntfcCI@@UAEHAAI@Z @ 18 NONAME ; int CWmaDecoderIntfcCI::GetSupportedMaxChannelsIn(unsigned int &)
	?GetSupportedMaxSampleRate@CWmaDecoderIntfcCI@@UAEHAAI@Z @ 19 NONAME ; int CWmaDecoderIntfcCI::GetSupportedMaxSampleRate(unsigned int &)
	?GetSupportedTools@CWmaDecoderIntfcCI@@UAEHAAV?$RArray@W4TTool@CWmaDecoderIntfc@@@@@Z @ 20 NONAME ; int CWmaDecoderIntfcCI::GetSupportedTools(class RArray<enum CWmaDecoderIntfc::TTool> &)
	?GetTool@CWmaDecoderIntfcCI@@UAEHW4TTool@CWmaDecoderIntfc@@AAH@Z @ 21 NONAME ; int CWmaDecoderIntfcCI::GetTool(enum CWmaDecoderIntfc::TTool, int &)
	?NewL@CWmaDecoderIntfcCI@@SAPAV1@XZ @ 22 NONAME ; class CWmaDecoderIntfcCI * CWmaDecoderIntfcCI::NewL(void)
	?SetAvgBytesPerSec@CWmaDecoderIntfcCI@@UAEXI@Z @ 23 NONAME ; void CWmaDecoderIntfcCI::SetAvgBytesPerSec(unsigned int)
	?SetBitsPerSampleIn@CWmaDecoderIntfcCI@@UAEXI@Z @ 24 NONAME ; void CWmaDecoderIntfcCI::SetBitsPerSampleIn(unsigned int)
	?SetBlockAlign@CWmaDecoderIntfcCI@@UAEXI@Z @ 25 NONAME ; void CWmaDecoderIntfcCI::SetBlockAlign(unsigned int)
	?SetChannelMaskIn@CWmaDecoderIntfcCI@@UAEXI@Z @ 26 NONAME ; void CWmaDecoderIntfcCI::SetChannelMaskIn(unsigned int)
	?SetEncodeOptions1@CWmaDecoderIntfcCI@@UAEXI@Z @ 27 NONAME ; void CWmaDecoderIntfcCI::SetEncodeOptions1(unsigned int)
	?SetEncodeOptions2@CWmaDecoderIntfcCI@@UAEXI@Z @ 28 NONAME ; void CWmaDecoderIntfcCI::SetEncodeOptions2(unsigned int)
	?SetEncodeOptions@CWmaDecoderIntfcCI@@UAEXI@Z @ 29 NONAME ; void CWmaDecoderIntfcCI::SetEncodeOptions(unsigned int)
	?SetFormat@CWmaDecoderIntfcCI@@UAEXW4TFormat@CWmaDecoderIntfc@@@Z @ 30 NONAME ; void CWmaDecoderIntfcCI::SetFormat(enum CWmaDecoderIntfc::TFormat)
	?SetNumChannelsIn@CWmaDecoderIntfcCI@@UAEXI@Z @ 31 NONAME ; void CWmaDecoderIntfcCI::SetNumChannelsIn(unsigned int)
	?SetSamplesPerSec@CWmaDecoderIntfcCI@@UAEXI@Z @ 32 NONAME ; void CWmaDecoderIntfcCI::SetSamplesPerSec(unsigned int)

