EXPORTS
	_Z19CreateLogicalDevicev @ 1 NONAME
	_ZN10DIscDevice10QueueFrameEtPK6TDesC8PKvPv @ 2 NONAME
	_ZN10DIscDevice11FlushQueuesEv @ 3 NONAME
	_ZN10DIscDevice13CancelSendingEtPKv @ 4 NONAME
	_ZN10DIscDevice13ULFlowControlEitPKv @ 5 NONAME
	_ZN10DIscDevice15CompleteRequestEtiPKv @ 6 NONAME
	_ZN10DIscDevice16CopyToUserBufferEPvRK6TDesC8PKvi @ 7 NONAME
	_ZN10DIscDevice18CopyFromUserBufferERK6TDesC8R5TDes8PKvi @ 8 NONAME
	_ZN10DIscDevice18ReleaseMemoryBlockEP5TDes8 @ 9 NONAME
	_ZN10DIscDevice18ReserveMemoryBlockERP5TDes8t @ 10 NONAME
	_ZN10DIscDevice22NotifyConnectionStatusEi @ 11 NONAME
	_ZN10DIscDevice9IsPendingEtPKv @ 12 NONAME
	_ZN10DIscDeviceC1Ev @ 13 NONAME
	_ZN10DIscDeviceC2Ev @ 14 NONAME
	_ZN10DIscDeviceD0Ev @ 15 NONAME
	_ZN10DIscDeviceD1Ev @ 16 NONAME
	_ZN10DIscDeviceD2Ev @ 17 NONAME
	_ZN11DIscChannelC1EP14DLogicalDevice @ 18 NONAME
	_ZN11DIscChannelC2EP14DLogicalDevice @ 19 NONAME
	_ZN13DIscSendQueue17GetFirstFrameInfoEv @ 20 NONAME
	_ZN13DIscSendQueue3AddEPvtP11DIscChannelS0_ @ 21 NONAME
	_ZN13DIscSendQueueC1EPPmPP17TIscSendFrameInfot @ 22 NONAME
	_ZN13DIscSendQueueC2EPPmPP17TIscSendFrameInfot @ 23 NONAME
	_ZN13DIscSendQueueD0Ev @ 24 NONAME
	_ZN13DIscSendQueueD1Ev @ 25 NONAME
	_ZN13DIscSendQueueD2Ev @ 26 NONAME
	_ZN19IscChannelContainer10SetChannelEP11DIscChannelt @ 27 NONAME
	_ZN9DIscQueue11DeleteFirstEv @ 28 NONAME
	_ZN9DIscQueue11RemoveFirstEv @ 29 NONAME
	_ZN9DIscQueue16NextBufferLengthEv @ 30 NONAME
	_ZN9DIscQueue3AddEPv @ 31 NONAME
	_ZN9DIscQueue5EmptyEv @ 32 NONAME
	_ZN9DIscQueue8GetFirstEv @ 33 NONAME
	_ZN9DIscQueueC1EPPmt @ 34 NONAME
	_ZN9DIscQueueC2EPPmt @ 35 NONAME
	_ZN9DIscQueueD0Ev @ 36 NONAME
	_ZN9DIscQueueD1Ev @ 37 NONAME
	_ZN9DIscQueueD2Ev @ 38 NONAME
	_ZNK10DIscDevice7GetCapsER5TDes8 @ 39 NONAME
	_ZNK10DIscDevice7ReceiveEP6TDesC8 @ 40 NONAME
	_ZTI10DIscDevice @ 41 NONAME ; #<TI>#
	_ZTI11DIscChannel @ 42 NONAME ; #<TI>#
	_ZTI13DIscSendQueue @ 43 NONAME ; #<TI>#
	_ZTI17DIscMainRcvBuffer @ 44 NONAME ; #<TI>#
	_ZTI9DIscQueue @ 45 NONAME ; #<TI>#
	_ZTV10DIscDevice @ 46 NONAME ; #<VT>#
	_ZTV11DIscChannel @ 47 NONAME ; #<VT>#
	_ZTV13DIscSendQueue @ 48 NONAME ; #<VT>#
	_ZTV17DIscMainRcvBuffer @ 49 NONAME ; #<VT>#
	_ZTV9DIscQueue @ 50 NONAME ; #<VT>#
	_ZN10DIscDevice12GetThreadPtrEPKv @ 51 NONAME

